Certificate:
    Data:
        Version: 3 (0x2)
        Serial Number: 1 (0x1)
        Signature Algorithm: sha256WithRSAEncryption
        Issuer: C=CN, ST=guangdong, O=tgg, OU=tgg, CN=opengauss
        Validity
            Not Before: Apr 24 15:58:26 2023 GMT
            Not After : Apr 23 15:58:26 2024 GMT
        Subject: C=CN, ST=guangdong, O=tgg, OU=tgg, CN=opengauss
        Subject Public Key Info:
            Public Key Algorithm: rsaEncryption
                RSA Public-Key: (2048 bit)
                Modulus:
                    00:b2:fd:39:b2:a9:a0:4a:e8:f3:3a:98:27:6f:1c:
                    ae:f6:2f:e2:19:ab:9d:7f:71:8a:2f:fa:95:49:53:
                    a5:59:9a:84:8e:24:bf:c3:16:db:c3:48:84:ef:36:
                    63:36:6a:5f:fb:9a:a2:11:2e:d3:78:7c:77:f7:37:
                    62:c3:41:03:6c:cd:61:6b:79:07:6f:0f:16:45:85:
                    a6:2b:36:de:2a:49:ba:9f:0f:2a:08:e4:52:49:6a:
                    80:47:ac:1b:42:ec:a5:06:1e:06:05:24:8e:3b:a0:
                    49:de:57:72:30:49:92:e2:43:0d:4c:09:24:85:51:
                    7d:29:b1:f7:96:ce:81:c2:66:6b:f0:26:37:07:7c:
                    0d:c4:b9:cf:7f:1b:d9:09:03:f6:d7:d8:28:33:57:
                    e4:2d:b4:36:42:fa:2a:66:81:25:8c:f4:30:b3:a4:
                    c3:02:d3:c7:89:2b:35:f6:07:f7:cd:f5:f3:83:88:
                    b6:5a:2e:d9:4c:05:73:b3:0e:4b:e9:c8:80:c9:0a:
                    8a:51:fe:65:60:c9:48:5f:9b:92:95:b0:73:05:b2:
                    fb:4a:21:9e:20:62:c9:dd:70:9f:6d:7a:a3:99:de:
                    f0:b1:50:4b:db:97:bb:80:0f:2b:14:e0:8e:db:01:
                    4f:dd:fb:1a:23:08:cb:44:ce:ed:b6:7c:f1:b3:0d:
                    bc:01
                Exponent: 65537 (0x10001)
        X509v3 extensions:
            X509v3 Basic Constraints: 
                CA:TRUE
            Netscape Comment: 
                OpenSSL Generated Certificate
            X509v3 Subject Key Identifier: 
                BD:2C:E2:EB:DC:87:09:C1:06:99:6F:D5:7F:F5:21:DC:5A:E8:D4:1E
            X509v3 Authority Key Identifier: 
                keyid:BD:2C:E2:EB:DC:87:09:C1:06:99:6F:D5:7F:F5:21:DC:5A:E8:D4:1E

    Signature Algorithm: sha256WithRSAEncryption
         83:3d:92:55:ce:b4:53:47:ca:09:22:59:26:fc:d0:df:6e:20:
         6e:e1:ec:07:8d:34:df:4e:af:09:73:a0:3d:4e:8e:82:1e:5e:
         bc:6d:e9:b1:fa:f1:ce:3b:cc:c9:a7:2a:93:3f:5d:10:12:38:
         8c:50:f7:c7:d1:c8:8f:e7:12:32:5b:98:78:05:d0:ba:ad:09:
         92:72:b1:b3:4f:73:52:7b:19:d5:8c:c0:8f:a1:d1:2c:91:9d:
         64:61:c9:56:ee:aa:74:3f:d5:cd:ad:4c:94:4b:eb:82:72:8b:
         55:ec:9d:af:25:9d:16:bc:cd:bb:ff:a5:a6:77:24:78:ee:e8:
         16:60:d0:93:40:09:db:30:b5:47:78:63:7b:78:5b:1c:d1:07:
         88:09:87:cc:7a:97:42:70:ea:3d:00:54:12:d3:66:6d:1a:0f:
         32:fc:83:bf:38:de:c9:a4:29:1f:b8:97:46:78:ff:bc:13:7b:
         41:3a:3e:4e:6e:de:62:9f:3a:00:a9:e8:77:55:05:ec:de:df:
         fe:31:bb:c9:bd:b0:86:54:a5:29:1d:a9:95:79:64:dc:4e:ee:
         c9:00:2e:fe:11:9e:b8:08:31:a1:c3:86:f0:fa:c9:b5:e1:f4:
         76:2c:37:ca:6f:cf:cc:e8:c0:a6:65:30:6e:1b:58:2a:aa:e9:
         8e:ac:e1:b3
-----BEGIN CERTIFICATE-----
MIIDmzCCAoOgAwIBAgIBATANBgkqhkiG9w0BAQsFADBRMQswCQYDVQQGEwJDTjES
MBAGA1UECAwJZ3Vhbmdkb25nMQwwCgYDVQQKDAN0Z2cxDDAKBgNVBAsMA3RnZzES
MBAGA1UEAwwJb3BlbmdhdXNzMB4XDTIzMDQyNDE1NTgyNloXDTI0MDQyMzE1NTgy
NlowUTELMAkGA1UEBhMCQ04xEjAQBgNVBAgMCWd1YW5nZG9uZzEMMAoGA1UECgwD
dGdnMQwwCgYDVQQLDAN0Z2cxEjAQBgNVBAMMCW9wZW5nYXVzczCCASIwDQYJKoZI
hvcNAQEBBQADggEPADCCAQoCggEBALL9ObKpoEro8zqYJ28crvYv4hmrnX9xii/6
lUlTpVmahI4kv8MW28NIhO82YzZqX/uaohEu03h8d/c3YsNBA2zNYWt5B28PFkWF
pis23ipJup8PKgjkUklqgEesG0LspQYeBgUkjjugSd5XcjBJkuJDDUwJJIVRfSmx
95bOgcJma/AmNwd8DcS5z38b2QkD9tfYKDNX5C20NkL6KmaBJYz0MLOkwwLTx4kr
NfYH983184OItlou2UwFc7MOS+nIgMkKilH+ZWDJSF+bkpWwcwWy+0ohniBiyd1w
n216o5ne8LFQS9uXu4APKxTgjtsBT937GiMIy0TO7bZ88bMNvAECAwEAAaN+MHww
DAYDVR0TBAUwAwEB/zAsBglghkgBhvhCAQ0EHxYdT3BlblNTTCBHZW5lcmF0ZWQg
Q2VydGlmaWNhdGUwHQYDVR0OBBYEFL0s4uvchwnBBplv1X/1Idxa6NQeMB8GA1Ud
IwQYMBaAFL0s4uvchwnBBplv1X/1Idxa6NQeMA0GCSqGSIb3DQEBCwUAA4IBAQCD
PZJVzrRTR8oJIlkm/NDfbiBu4ewHjTTfTq8Jc6A9To6CHl68bemx+vHOO8zJpyqT
P10QEjiMUPfH0ciP5xIyW5h4BdC6rQmScrGzT3NSexnVjMCPodEskZ1kYclW7qp0
P9XNrUyUS+uCcotV7J2vJZ0WvM27/6WmdyR47ugWYNCTQAnbMLVHeGN7eFsc0QeI
CYfMepdCcOo9AFQS02ZtGg8y/IO/ON7JpCkfuJdGeP+8E3tBOj5Obt5inzoAqeh3
VQXs3t/+MbvJvbCGVKUpHamVeWTcTu7JAC7+EZ64CDGhw4bw+sm14fR2LDfKb8/M
6MCmZTBuG1gqqumOrOGz
-----END CERTIFICATE-----
